target datalayout = "e-m:e-p270:32:32-p271:32:32-p272:64:64-i64:64-i128:128-f80:128-n8:16:32:64-S128"
target triple = "x86_64-pc-linux-gnu"

%struct._zend_ssa_var_info = type { i32, i8, %struct._zend_ssa_range, ptr }
%struct._zend_ssa_range = type { i64, i64, i8, i8 }
%struct._zend_array = type { %struct._zend_refcounted_h, %union.anon.5, i32, %union.anon.7, i32, i32, i32, i32, i64, ptr }
%struct._zend_refcounted_h = type { i32, %union.anon.4 }
%union.anon.4 = type { i32 }
%union.anon.5 = type { i32 }
%union.anon.7 = type { ptr }
%struct._zend_string = type { %struct._zend_refcounted_h, i64, i64, [1 x i8] }
%struct.zend_type = type { ptr, i32 }
%struct.zend_type_list = type { i32, [1 x %struct.zend_type] }
%struct._zend_class_entry = type { i8, ptr, %union.anon.8, i32, i32, i32, i32, ptr, ptr, ptr, %struct._zend_array, %struct._zend_array, %struct._zend_array, ptr, ptr, ptr, ptr, ptr, ptr, ptr, ptr, ptr, ptr, ptr, ptr, ptr, ptr, ptr, ptr, ptr, ptr, ptr, %union.anon.9, ptr, ptr, ptr, ptr, i32, i32, i32, i32, %union.anon.10, ptr, ptr, ptr, ptr, i32, ptr, ptr, %union.anon.11 }
%union.anon.8 = type { ptr }
%union.anon.9 = type { ptr }
%union.anon.10 = type { ptr }
%union.anon.11 = type { %struct.anon.12 }
%struct.anon.12 = type { ptr, i32, i32 }

; Function Attrs: alwaysinline nounwind uwtable
define internal zeroext i1 @instanceof_function(ptr noundef %0, ptr noundef %1) #4 {
  %3 = alloca ptr, align 8
  %4 = alloca ptr, align 8
  store ptr %0, ptr %3, align 8, !tbaa !170
  store ptr %1, ptr %4, align 8, !tbaa !170
  %5 = load ptr, ptr %3, align 8, !tbaa !170
  %6 = load ptr, ptr %4, align 8, !tbaa !170
  %7 = icmp eq ptr %5, %6
  br i1 %7, label %12, label %8

8:                                                ; preds = %2
  %9 = load ptr, ptr %3, align 8, !tbaa !170
  %10 = load ptr, ptr %4, align 8, !tbaa !170
  %11 = call zeroext i1 @instanceof_function_slow(ptr noundef %9, ptr noundef %10)
  br label %12

12:                                               ; preds = %8, %2
  %13 = phi i1 [ true, %2 ], [ %11, %8 ]
  ret i1 %13
}

; Function Attrs: alwaysinline nounwind uwtable
define internal i32 @zend_gc_delref(ptr noundef %0) #4 {
  %2 = alloca ptr, align 8
  store ptr %0, ptr %2, align 8, !tbaa !182
  %3 = load ptr, ptr %2, align 8, !tbaa !182
  %4 = getelementptr inbounds nuw %struct._zend_refcounted_h, ptr %3, i32 0, i32 0
  %5 = load i32, ptr %4, align 4, !tbaa !184
  %6 = icmp ugt i32 %5, 0
  call void @llvm.assume(i1 %6)
  br label %7

7:                                                ; preds = %1
  br label %8

8:                                                ; preds = %7
  %9 = load ptr, ptr %2, align 8, !tbaa !182
  %10 = getelementptr inbounds nuw %struct._zend_refcounted_h, ptr %9, i32 0, i32 0
  %11 = load i32, ptr %10, align 4, !tbaa !184
  %12 = add i32 %11, -1
  store i32 %12, ptr %10, align 4, !tbaa !184
  ret i32 %12
}

; Function Attrs: alwaysinline nounwind uwtable
define internal i32 @zval_gc_flags(i32 noundef %0) #4 {
  %2 = alloca i32, align 4
  store i32 %0, ptr %2, align 4, !tbaa !42
  %3 = load i32, ptr %2, align 4, !tbaa !42
  %4 = lshr i32 %3, 0
  %5 = and i32 %4, 1008
  ret i32 %5
}

; Function Attrs: nounwind uwtable
define internal zeroext i1 @safe_instanceof(ptr noundef %0, ptr noundef %1) #0 {
  %3 = alloca i1, align 1
  %4 = alloca ptr, align 8
  %5 = alloca ptr, align 8
  store ptr %0, ptr %4, align 8, !tbaa !170
  store ptr %1, ptr %5, align 8, !tbaa !170
  %6 = load ptr, ptr %4, align 8, !tbaa !170
  %7 = load ptr, ptr %5, align 8, !tbaa !170
  %8 = icmp eq ptr %6, %7
  br i1 %8, label %9, label %10

9:                                                ; preds = %2
  store i1 true, ptr %3, align 1
  br label %21

10:                                               ; preds = %2
  %11 = load ptr, ptr %4, align 8, !tbaa !170
  %12 = getelementptr inbounds nuw %struct._zend_class_entry, ptr %11, i32 0, i32 4
  %13 = load i32, ptr %12, align 4, !tbaa !171
  %14 = and i32 %13, 8
  %15 = icmp ne i32 %14, 0
  br i1 %15, label %17, label %16

16:                                               ; preds = %10
  store i1 false, ptr %3, align 1
  br label %21

17:                                               ; preds = %10
  %18 = load ptr, ptr %4, align 8, !tbaa !170
  %19 = load ptr, ptr %5, align 8, !tbaa !170
  %20 = call zeroext i1 @instanceof_function(ptr noundef %18, ptr noundef %19)
  store i1 %20, ptr %3, align 1
  br label %21

21:                                               ; preds = %17, %16, %9
  %22 = load i1, ptr %3, align 1
  ret i1 %22
}

; Function Attrs: alwaysinline nounwind uwtable
define internal void @zend_string_release(ptr noundef %0) #4 {
  %2 = alloca ptr, align 8
  store ptr %0, ptr %2, align 8, !tbaa !96
  %3 = load ptr, ptr %2, align 8, !tbaa !96
  %4 = getelementptr inbounds nuw %struct._zend_string, ptr %3, i32 0, i32 0
  %5 = getelementptr inbounds nuw %struct._zend_refcounted_h, ptr %4, i32 0, i32 1
  %6 = load i32, ptr %5, align 4, !tbaa !61
  %7 = call i32 @zval_gc_flags(i32 noundef %6)
  %8 = and i32 %7, 64
  %9 = icmp ne i32 %8, 0
  br i1 %9, label %29, label %10

10:                                               ; preds = %1
  %11 = load ptr, ptr %2, align 8, !tbaa !96
  %12 = getelementptr inbounds nuw %struct._zend_string, ptr %11, i32 0, i32 0
  %13 = call i32 @zend_gc_delref(ptr noundef %12)
  %14 = icmp eq i32 %13, 0
  br i1 %14, label %15, label %28

15:                                               ; preds = %10
  %16 = load ptr, ptr %2, align 8, !tbaa !96
  %17 = getelementptr inbounds nuw %struct._zend_string, ptr %16, i32 0, i32 0
  %18 = getelementptr inbounds nuw %struct._zend_refcounted_h, ptr %17, i32 0, i32 1
  %19 = load i32, ptr %18, align 4, !tbaa !61
  %20 = call i32 @zval_gc_flags(i32 noundef %19)
  %21 = and i32 %20, 128
  %22 = icmp ne i32 %21, 0
  br i1 %22, label %23, label %25

23:                                               ; preds = %15
  %24 = load ptr, ptr %2, align 8, !tbaa !96
  call void @free(ptr noundef %24) #13
  br label %27

25:                                               ; preds = %15
  %26 = load ptr, ptr %2, align 8, !tbaa !96
  call void @_efree(ptr noundef %26)
  br label %27

27:                                               ; preds = %25, %23
  br label %28

28:                                               ; preds = %27, %10
  br label %29

29:                                               ; preds = %28, %1
  ret void
}

; Function Attrs: alwaysinline nounwind uwtable
define internal ptr @zend_string_tolower(ptr noundef %0) #4 {
  %2 = alloca ptr, align 8
  store ptr %0, ptr %2, align 8, !tbaa !96
  %3 = load ptr, ptr %2, align 8, !tbaa !96
  %4 = call ptr @zend_string_tolower_ex(ptr noundef %3, i1 noundef zeroext false)
  ret ptr %4
}

; Function Attrs: inlinehint nounwind uwtable
define internal zeroext i1 @can_elide_list_type(ptr noundef %0, ptr noundef %1, ptr noundef %2, ptr %3, i32 %4) #7 {
  %6 = alloca i1, align 1
  %7 = alloca %struct.zend_type, align 8
  %8 = alloca ptr, align 8
  %9 = alloca ptr, align 8
  %10 = alloca ptr, align 8
  %11 = alloca ptr, align 8
  %12 = alloca i8, align 1
  %13 = alloca ptr, align 8
  %14 = alloca ptr, align 8
  %15 = alloca ptr, align 8
  %16 = alloca i32, align 4
  %17 = alloca ptr, align 8
  %18 = alloca ptr, align 8
  %19 = alloca i8, align 1
  %20 = getelementptr inbounds nuw { ptr, i32 }, ptr %7, i32 0, i32 0
  store ptr %3, ptr %20, align 8
  %21 = getelementptr inbounds nuw { ptr, i32 }, ptr %7, i32 0, i32 1
  store i32 %4, ptr %21, align 8
  store ptr %0, ptr %8, align 8, !tbaa !127
  store ptr %1, ptr %9, align 8, !tbaa !4
  store ptr %2, ptr %10, align 8, !tbaa !130
  call void @llvm.lifetime.start.p0(i64 8, ptr %11) #13
  call void @llvm.lifetime.start.p0(i64 1, ptr %12) #13
  %22 = getelementptr inbounds nuw %struct.zend_type, ptr %7, i32 0, i32 1
  %23 = load i32, ptr %22, align 8, !tbaa !166
  %24 = and i32 %23, 524288
  %25 = icmp ne i32 %24, 0
  %26 = zext i1 %25 to i8
  store i8 %26, ptr %12, align 1, !tbaa !65
  br label %27

27:                                               ; preds = %5
  call void @llvm.lifetime.start.p0(i64 8, ptr %13) #13
  call void @llvm.lifetime.start.p0(i64 8, ptr %14) #13
  %28 = getelementptr inbounds nuw %struct.zend_type, ptr %7, i32 0, i32 1
  %29 = load i32, ptr %28, align 8, !tbaa !166
  %30 = and i32 %29, 4194304
  %31 = icmp ne i32 %30, 0
  br i1 %31, label %32, label %44

32:                                               ; preds = %27
  call void @llvm.lifetime.start.p0(i64 8, ptr %15) #13
  %33 = getelementptr inbounds nuw %struct.zend_type, ptr %7, i32 0, i32 0
  %34 = load ptr, ptr %33, align 8, !tbaa !167
  store ptr %34, ptr %15, align 8, !tbaa !45
  %35 = load ptr, ptr %15, align 8, !tbaa !45
  %36 = getelementptr inbounds nuw %struct.zend_type_list, ptr %35, i32 0, i32 1
  %37 = getelementptr inbounds [1 x %struct.zend_type], ptr %36, i64 0, i64 0
  store ptr %37, ptr %13, align 8, !tbaa !45
  %38 = load ptr, ptr %13, align 8, !tbaa !45
  %39 = load ptr, ptr %15, align 8, !tbaa !45
  %40 = getelementptr inbounds nuw %struct.zend_type_list, ptr %39, i32 0, i32 0
  %41 = load i32, ptr %40, align 8, !tbaa !168
  %42 = zext i32 %41 to i64
  %43 = getelementptr inbounds nuw %struct.zend_type, ptr %38, i64 %42
  store ptr %43, ptr %14, align 8, !tbaa !45
  call void @llvm.lifetime.end.p0(i64 8, ptr %15) #13
  br label %47

44:                                               ; preds = %27
  store ptr %7, ptr %13, align 8, !tbaa !45
  %45 = load ptr, ptr %13, align 8, !tbaa !45
  %46 = getelementptr inbounds %struct.zend_type, ptr %45, i64 1
  store ptr %46, ptr %14, align 8, !tbaa !45
  br label %47

47:                                               ; preds = %44, %32
  br label %48

48:                                               ; preds = %111, %47
  %49 = load ptr, ptr %13, align 8, !tbaa !45
  store ptr %49, ptr %11, align 8, !tbaa !45
  %50 = load ptr, ptr %11, align 8, !tbaa !45
  %51 = getelementptr inbounds nuw %struct.zend_type, ptr %50, i32 0, i32 1
  %52 = load i32, ptr %51, align 8, !tbaa !166
  %53 = and i32 %52, 4194304
  %54 = icmp ne i32 %53, 0
  br i1 %54, label %55, label %68

55:                                               ; preds = %48
  %56 = load i8, ptr %12, align 1, !tbaa !65, !range !67, !noundef !68
  %57 = trunc i8 %56 to i1
  %58 = xor i1 %57, true
  call void @llvm.assume(i1 %58)
  %59 = load ptr, ptr %8, align 8, !tbaa !127
  %60 = load ptr, ptr %9, align 8, !tbaa !4
  %61 = load ptr, ptr %10, align 8, !tbaa !130
  %62 = load ptr, ptr %11, align 8, !tbaa !45
  %63 = getelementptr inbounds nuw { ptr, i32 }, ptr %62, i32 0, i32 0
  %64 = load ptr, ptr %63, align 8
  %65 = getelementptr inbounds nuw { ptr, i32 }, ptr %62, i32 0, i32 1
  %66 = load i32, ptr %65, align 8
  %67 = call zeroext i1 @can_elide_list_type(ptr noundef %59, ptr noundef %60, ptr noundef %61, ptr %64, i32 %66)
  store i1 %67, ptr %6, align 1
  store i32 1, ptr %16, align 4
  br label %117

68:                                               ; preds = %48
  %69 = load ptr, ptr %11, align 8, !tbaa !45
  %70 = getelementptr inbounds nuw %struct.zend_type, ptr %69, i32 0, i32 1
  %71 = load i32, ptr %70, align 8, !tbaa !166
  %72 = and i32 %71, 16777216
  %73 = icmp ne i32 %72, 0
  br i1 %73, label %74, label %110

74:                                               ; preds = %68
  call void @llvm.lifetime.start.p0(i64 8, ptr %17) #13
  %75 = load ptr, ptr %11, align 8, !tbaa !45
  %76 = getelementptr inbounds nuw %struct.zend_type, ptr %75, i32 0, i32 0
  %77 = load ptr, ptr %76, align 8, !tbaa !167
  %78 = call ptr @zend_string_tolower(ptr noundef %77)
  store ptr %78, ptr %17, align 8, !tbaa !96
  call void @llvm.lifetime.start.p0(i64 8, ptr %18) #13
  %79 = load ptr, ptr %8, align 8, !tbaa !127
  %80 = load ptr, ptr %9, align 8, !tbaa !4
  %81 = load ptr, ptr %17, align 8, !tbaa !96
  %82 = call ptr @zend_optimizer_get_class_entry(ptr noundef %79, ptr noundef %80, ptr noundef %81)
  store ptr %82, ptr %18, align 8, !tbaa !170
  %83 = load ptr, ptr %17, align 8, !tbaa !96
  call void @zend_string_release(ptr noundef %83)
  call void @llvm.lifetime.start.p0(i64 1, ptr %19) #13
  %84 = load ptr, ptr %18, align 8, !tbaa !170
  %85 = icmp ne ptr %84, null
  br i1 %85, label %86, label %92

86:                                               ; preds = %74
  %87 = load ptr, ptr %10, align 8, !tbaa !130
  %88 = getelementptr inbounds nuw %struct._zend_ssa_var_info, ptr %87, i32 0, i32 3
  %89 = load ptr, ptr %88, align 8, !tbaa !134
  %90 = load ptr, ptr %18, align 8, !tbaa !170
  %91 = call zeroext i1 @safe_instanceof(ptr noundef %89, ptr noundef %90)
  br label %92

92:                                               ; preds = %86, %74
  %93 = phi i1 [ false, %74 ], [ %91, %86 ]
  %94 = zext i1 %93 to i8
  store i8 %94, ptr %19, align 1, !tbaa !65
  %95 = load i8, ptr %19, align 1, !tbaa !65, !range !67, !noundef !68
  %96 = trunc i8 %95 to i1
  %97 = zext i1 %96 to i32
  %98 = load i8, ptr %12, align 1, !tbaa !65, !range !67, !noundef !68
  %99 = trunc i8 %98 to i1
  %100 = xor i1 %99, true
  %101 = zext i1 %100 to i32
  %102 = icmp eq i32 %97, %101
  br i1 %102, label %103, label %106

103:                                              ; preds = %92
  %104 = load i8, ptr %19, align 1, !tbaa !65, !range !67, !noundef !68
  %105 = trunc i8 %104 to i1
  store i1 %105, ptr %6, align 1
  store i32 1, ptr %16, align 4
  br label %107

106:                                              ; preds = %92
  store i32 0, ptr %16, align 4
  br label %107

107:                                              ; preds = %106, %103
  call void @llvm.lifetime.end.p0(i64 1, ptr %19) #13
  call void @llvm.lifetime.end.p0(i64 8, ptr %18) #13
  call void @llvm.lifetime.end.p0(i64 8, ptr %17) #13
  %108 = load i32, ptr %16, align 4
  switch i32 %108, label %117 [
    i32 0, label %109
  ]

109:                                              ; preds = %107
  br label %110

110:                                              ; preds = %109, %68
  br label %111

111:                                              ; preds = %110
  %112 = load ptr, ptr %13, align 8, !tbaa !45
  %113 = getelementptr inbounds nuw %struct.zend_type, ptr %112, i32 1
  store ptr %113, ptr %13, align 8, !tbaa !45
  %114 = load ptr, ptr %14, align 8, !tbaa !45
  %115 = icmp ult ptr %113, %114
  br i1 %115, label %48, label %116

116:                                              ; preds = %111
  store i32 0, ptr %16, align 4
  br label %117

117:                                              ; preds = %116, %107, %55
  call void @llvm.lifetime.end.p0(i64 8, ptr %14) #13
  call void @llvm.lifetime.end.p0(i64 8, ptr %13) #13
  %118 = load i32, ptr %16, align 4
  switch i32 %118, label %124 [
    i32 0, label %119
  ]

119:                                              ; preds = %117
  br label %120

120:                                              ; preds = %119
  br label %121

121:                                              ; preds = %120
  %122 = load i8, ptr %12, align 1, !tbaa !65, !range !67, !noundef !68
  %123 = trunc i8 %122 to i1
  store i1 %123, ptr %6, align 1
  store i32 1, ptr %16, align 4
  br label %124

124:                                              ; preds = %121, %117
  call void @llvm.lifetime.end.p0(i64 1, ptr %12) #13
  call void @llvm.lifetime.end.p0(i64 8, ptr %11) #13
  %125 = load i1, ptr %6, align 1
  ret i1 %125
}