; Function Attrs: inlinehint nounwind uwtable
define internal fastcc zeroext i1 @can_elide_list_type(ptr noundef %0, ptr noundef %1, ptr noundef readonly captures(none) %2, ptr %3, i32 %4) unnamed_addr #5 {
  %6 = alloca %struct.zend_type, align 8
  store ptr %3, ptr %6, align 8
  %7 = getelementptr inbounds nuw i8, ptr %6, i64 8
  store i32 %4, ptr %7, align 8
  %8 = and i32 %4, 524288
  %9 = icmp ne i32 %8, 0
  %10 = and i32 %4, 4194304
  %.not = icmp eq i32 %10, 0
  br i1 %.not, label %16, label %11

11:                                               ; preds = %5
  %12 = getelementptr inbounds nuw i8, ptr %3, i64 8
  %13 = load i32, ptr %3, align 8, !tbaa !144
  %14 = zext i32 %13 to i64
  %15 = getelementptr inbounds nuw %struct.zend_type, ptr %12, i64 %14
  br label %18

16:                                               ; preds = %5
  %17 = getelementptr inbounds nuw i8, ptr %6, i64 16
  br label %18

18:                                               ; preds = %16, %11
  %.031 = phi ptr [ %15, %11 ], [ %17, %16 ]
  %.029 = phi ptr [ %12, %11 ], [ %6, %16 ]
  %19 = getelementptr inbounds nuw i8, ptr %2, i64 32
  br label %20

20:                                               ; preds = %55, %18
  %.130 = phi ptr [ %.029, %18 ], [ %56, %55 ]
  %21 = getelementptr inbounds nuw i8, ptr %.130, i64 8
  %22 = load i32, ptr %21, align 8, !tbaa !146
  %23 = and i32 %22, 4194304
  %.not36 = icmp eq i32 %23, 0
  br i1 %.not36, label %28, label %24

24:                                               ; preds = %20
  %25 = xor i1 %9, true
  call void @llvm.assume(i1 %25)
  %26 = load ptr, ptr %.130, align 8
  %27 = call fastcc zeroext i1 @can_elide_list_type(ptr noundef %0, ptr noundef %1, ptr noundef %2, ptr %26, i32 %22)
  br label %.thread

28:                                               ; preds = %20
  %29 = and i32 %22, 16777216
  %.not37 = icmp eq i32 %29, 0
  br i1 %.not37, label %55, label %30

30:                                               ; preds = %28
  %31 = load ptr, ptr %.130, align 8, !tbaa !147
  %32 = call ptr @zend_string_tolower_ex(ptr noundef %31, i1 noundef zeroext false) #12
  %33 = call ptr @zend_optimizer_get_class_entry(ptr noundef %0, ptr noundef %1, ptr noundef %32) #12
  %34 = getelementptr inbounds nuw i8, ptr %32, i64 4
  %35 = load i32, ptr %34, align 4, !tbaa !53
  %36 = and i32 %35, 64
  %.not.i = icmp eq i32 %36, 0
  br i1 %.not.i, label %37, label %zend_string_release.exit

37:                                               ; preds = %30
  %38 = load i32, ptr %32, align 4, !tbaa !148
  %39 = icmp ne i32 %38, 0
  call void @llvm.assume(i1 %39)
  %40 = add i32 %38, -1
  store i32 %40, ptr %32, align 4, !tbaa !148
  %41 = icmp eq i32 %40, 0
  br i1 %41, label %42, label %zend_string_release.exit

42:                                               ; preds = %37
  %43 = and i32 %35, 128
  %.not5.i = icmp eq i32 %43, 0
  br i1 %.not5.i, label %45, label %44

44:                                               ; preds = %42
  call void @free(ptr noundef nonnull %32) #12
  br label %zend_string_release.exit

45:                                               ; preds = %42
  call void @_efree(ptr noundef nonnull %32) #12
  br label %zend_string_release.exit

zend_string_release.exit:                         ; preds = %30, %37, %44, %45
  %.not38 = icmp eq ptr %33, null
  br i1 %.not38, label %safe_instanceof.exit.thr_comm, label %46

46:                                               ; preds = %zend_string_release.exit
  %47 = load ptr, ptr %19, align 8, !tbaa !97
  %48 = icmp eq ptr %47, %33
  br i1 %48, label %.safe_instanceof.exit_crit_edge, label %49

.safe_instanceof.exit_crit_edge:                  ; preds = %46
  br i1 %9, label %55, label %.thread

49:                                               ; preds = %46
  %50 = getelementptr inbounds nuw i8, ptr %47, i64 28
  %51 = load i32, ptr %50, align 4, !tbaa !149
  %52 = and i32 %51, 8
  %.not.i39 = icmp eq i32 %52, 0
  br i1 %.not.i39, label %safe_instanceof.exit.thr_comm, label %safe_instanceof.exit

safe_instanceof.exit.thr_comm:                    ; preds = %49, %zend_string_release.exit
  br i1 %9, label %.thread, label %55

safe_instanceof.exit:                             ; preds = %49
  %53 = call zeroext i1 @instanceof_function_slow(ptr noundef nonnull %47, ptr noundef nonnull %33) #12
  %54 = xor i1 %9, %53
  br i1 %54, label %.thread, label %55

55:                                               ; preds = %.safe_instanceof.exit_crit_edge, %safe_instanceof.exit.thr_comm, %28, %safe_instanceof.exit
  %56 = getelementptr inbounds nuw i8, ptr %.130, i64 16
  %57 = icmp ult ptr %56, %.031
  br i1 %57, label %20, label %.thread

.thread:                                          ; preds = %.safe_instanceof.exit_crit_edge, %safe_instanceof.exit.thr_comm, %safe_instanceof.exit, %55, %24
  %58 = phi i1 [ %27, %24 ], [ %53, %safe_instanceof.exit ], [ false, %safe_instanceof.exit.thr_comm ], [ true, %.safe_instanceof.exit_crit_edge ], [ %9, %55 ]
  ret i1 %58
}